target datalayout = "e-m:e-p270:32:32-p271:32:32-p272:64:64-i64:64-i128:128-f80:128-n8:16:32:64-S128"
target triple = "x86_64-pc-linux-gnu"

@hf_rr_pkt_imm_ass_2_prm_ac_spare1 = internal global i32 0, align 4
@hf_rr_pkt_imm_ass_2_prm_ac_final_alloc = internal global i32 0, align 4
@hf_rr_pkt_imm_ass_2_prm_ac_usf_granularity = internal global i32 0, align 4
@hf_rr_pkt_imm_ass_2_prm_ac_dl_ctl_mac_slot = internal global i32 0, align 4
@hf_rr_pkt_imm_ass_2_prm_ac_mac_mode = internal global i32 0, align 4
@hf_rr_pkt_imm_ass_2_prm_ac_start_fn = internal global i32 0, align 4
@hf_rr_pkt_imm_ass_2_prm_ac_rlc_dblk_gnt = internal global i32 0, align 4
@hf_rr_pkt_imm_ass_2_prm_ac_mcs = internal global i32 0, align 4
@hf_rr_pkt_imm_ass_2_prm_ac_tfi = internal global i32 0, align 4
@hf_rr_pkt_imm_ass_2_prm_ac_spare2 = internal global i32 0, align 4
@hf_rr_pkt_imm_ass_2_prm_ac_mac_slot_alloc = internal global i32 0, align 4
@hf_rr_pkt_imm_ass_2_prm_d_chan_mcs_cmd = internal global i32 0, align 4
@hf_rr_pkt_imm_ass_2_prm_d_chan_mcs_cmd_pnb512 = internal global i32 0, align 4
@hf_rr_pkt_imm_ass_2_prm_d_spare1 = internal global i32 0, align 4
@hf_rr_pkt_imm_ass_2_prm_d_rlc_dblk_gnt = internal global i32 0, align 4
@hf_rr_pkt_imm_ass_2_prm_d_spare2 = internal global i32 0, align 4
@hf_rr_pkt_imm_ass_2_prm_d_tfi = internal global i32 0, align 4
@hf_rr_pkt_imm_ass_2_prm_d_usf_granularity = internal global i32 0, align 4
@hf_rr_pkt_imm_ass_2_prm_d_mac_slot_alloc = internal global i32 0, align 4
@ett_gmr1_ie_rr = hidden global [32 x i32] zeroinitializer, align 16
@.str.226 = private unnamed_addr constant [27 x i8] c"GMPRS Terminal type A or C\00", align 1
@.str.227 = private unnamed_addr constant [22 x i8] c"GMPRS Terminal type D\00", align 1
@rr_pkt_imm_ass_2_prm_ac_rlc_dblk_gnt_crumbs = internal constant [3 x { i32, i8, [3 x i8] }] [{ i32, i8, [3 x i8] } { i32 0, i8 4, [3 x i8] zeroinitializer }, { i32, i8, [3 x i8] } { i32 13, i8 3, [3 x i8] zeroinitializer }, { i32, i8, [3 x i8] } zeroinitializer], align 16

; Function Attrs: null_pointer_is_valid sspstrong uwtable
define internal zeroext i16 @gmr1_ie_rr_pkt_imm_ass_2_prm(ptr noundef %0, ptr noundef %1, ptr noundef %2, i32 noundef %3, i32 noundef %4, ptr noundef %5, i32 noundef %6) #1 {
  %8 = alloca ptr, align 8
  %9 = alloca ptr, align 8
  %10 = alloca ptr, align 8
  %11 = alloca i32, align 4
  %12 = alloca i32, align 4
  %13 = alloca ptr, align 8
  %14 = alloca i32, align 4
  %15 = alloca ptr, align 8
  %16 = alloca ptr, align 8
  store ptr %0, ptr %8, align 8
  store ptr %1, ptr %9, align 8
  store ptr %2, ptr %10, align 8
  store i32 %3, ptr %11, align 4
  store i32 %4, ptr %12, align 4
  store ptr %5, ptr %13, align 8
  store i32 %6, ptr %14, align 4
  call void @llvm.lifetime.start.p0(i64 8, ptr %15) #5
  call void @llvm.lifetime.start.p0(i64 8, ptr %16) #5
  %17 = load ptr, ptr %9, align 8
  %18 = load ptr, ptr %8, align 8
  %19 = load i32, ptr %11, align 4
  %20 = load i32, ptr getelementptr ([32 x i32], ptr @ett_gmr1_ie_rr, i64 0, i64 26), align 8
  %21 = call ptr @proto_tree_add_subtree(ptr noundef %17, ptr noundef %18, i32 noundef %19, i32 noundef 5, i32 noundef %20, ptr noundef null, ptr noundef @.str.226)
  store ptr %21, ptr %15, align 8
  %22 = load ptr, ptr %15, align 8
  %23 = load i32, ptr @hf_rr_pkt_imm_ass_2_prm_ac_spare1, align 4
  %24 = load ptr, ptr %8, align 8
  %25 = load i32, ptr %11, align 4
  %26 = call ptr @proto_tree_add_item(ptr noundef %22, i32 noundef %23, ptr noundef %24, i32 noundef %25, i32 noundef 1, i32 noundef 0)
  %27 = load ptr, ptr %15, align 8
  %28 = load i32, ptr @hf_rr_pkt_imm_ass_2_prm_ac_final_alloc, align 4
  %29 = load ptr, ptr %8, align 8
  %30 = load i32, ptr %11, align 4
  %31 = call ptr @proto_tree_add_item(ptr noundef %27, i32 noundef %28, ptr noundef %29, i32 noundef %30, i32 noundef 1, i32 noundef 0)
  %32 = load ptr, ptr %15, align 8
  %33 = load i32, ptr @hf_rr_pkt_imm_ass_2_prm_ac_usf_granularity, align 4
  %34 = load ptr, ptr %8, align 8
  %35 = load i32, ptr %11, align 4
  %36 = call ptr @proto_tree_add_item(ptr noundef %32, i32 noundef %33, ptr noundef %34, i32 noundef %35, i32 noundef 1, i32 noundef 0)
  %37 = load ptr, ptr %15, align 8
  %38 = load i32, ptr @hf_rr_pkt_imm_ass_2_prm_ac_dl_ctl_mac_slot, align 4
  %39 = load ptr, ptr %8, align 8
  %40 = load i32, ptr %11, align 4
  %41 = call ptr @proto_tree_add_item(ptr noundef %37, i32 noundef %38, ptr noundef %39, i32 noundef %40, i32 noundef 1, i32 noundef 0)
  %42 = load ptr, ptr %15, align 8
  %43 = load i32, ptr @hf_rr_pkt_imm_ass_2_prm_ac_mac_mode, align 4
  %44 = load ptr, ptr %8, align 8
  %45 = load i32, ptr %11, align 4
  %46 = call ptr @proto_tree_add_item(ptr noundef %42, i32 noundef %43, ptr noundef %44, i32 noundef %45, i32 noundef 1, i32 noundef 0)
  %47 = load ptr, ptr %15, align 8
  %48 = load i32, ptr @hf_rr_pkt_imm_ass_2_prm_ac_start_fn, align 4
  %49 = load ptr, ptr %8, align 8
  %50 = load i32, ptr %11, align 4
  %51 = add i32 %50, 1
  %52 = call ptr @proto_tree_add_item(ptr noundef %47, i32 noundef %48, ptr noundef %49, i32 noundef %51, i32 noundef 1, i32 noundef 0)
  %53 = load ptr, ptr %9, align 8
  %54 = load i32, ptr @hf_rr_pkt_imm_ass_2_prm_ac_rlc_dblk_gnt, align 4
  %55 = load ptr, ptr %8, align 8
  %56 = load i32, ptr %11, align 4
  %57 = add i32 %56, 1
  %58 = shl i32 %57, 3
  %59 = call ptr @proto_tree_add_split_bits_item_ret_val(ptr noundef %53, i32 noundef %54, ptr noundef %55, i32 noundef %58, ptr noundef @rr_pkt_imm_ass_2_prm_ac_rlc_dblk_gnt_crumbs, ptr noundef null)
  %60 = load ptr, ptr %15, align 8
  %61 = load i32, ptr @hf_rr_pkt_imm_ass_2_prm_ac_mcs, align 4
  %62 = load ptr, ptr %8, align 8
  %63 = load i32, ptr %11, align 4
  %64 = add i32 %63, 2
  %65 = call ptr @proto_tree_add_item(ptr noundef %60, i32 noundef %61, ptr noundef %62, i32 noundef %64, i32 noundef 1, i32 noundef 0)
  %66 = load ptr, ptr %15, align 8
  %67 = load i32, ptr @hf_rr_pkt_imm_ass_2_prm_ac_tfi, align 4
  %68 = load ptr, ptr %8, align 8
  %69 = load i32, ptr %11, align 4
  %70 = add i32 %69, 3
  %71 = call ptr @proto_tree_add_item(ptr noundef %66, i32 noundef %67, ptr noundef %68, i32 noundef %70, i32 noundef 1, i32 noundef 0)
  %72 = load ptr, ptr %15, align 8
  %73 = load i32, ptr @hf_rr_pkt_imm_ass_2_prm_ac_spare2, align 4
  %74 = load ptr, ptr %8, align 8
  %75 = load i32, ptr %11, align 4
  %76 = add i32 %75, 3
  %77 = call ptr @proto_tree_add_item(ptr noundef %72, i32 noundef %73, ptr noundef %74, i32 noundef %76, i32 noundef 1, i32 noundef 0)
  %78 = load ptr, ptr %15, align 8
  %79 = load i32, ptr @hf_rr_pkt_imm_ass_2_prm_ac_mac_slot_alloc, align 4
  %80 = load ptr, ptr %8, align 8
  %81 = load i32, ptr %11, align 4
  %82 = add i32 %81, 4
  %83 = call ptr @proto_tree_add_item(ptr noundef %78, i32 noundef %79, ptr noundef %80, i32 noundef %82, i32 noundef 1, i32 noundef 0)
  %84 = load ptr, ptr %9, align 8
  %85 = load ptr, ptr %8, align 8
  %86 = load i32, ptr %11, align 4
  %87 = load i32, ptr getelementptr ([32 x i32], ptr @ett_gmr1_ie_rr, i64 0, i64 26), align 8
  %88 = call ptr @proto_tree_add_subtree(ptr noundef %84, ptr noundef %85, i32 noundef %86, i32 noundef 5, i32 noundef %87, ptr noundef null, ptr noundef @.str.227)
  store ptr %88, ptr %16, align 8
  %89 = load ptr, ptr %16, align 8
  %90 = load i32, ptr @hf_rr_pkt_imm_ass_2_prm_d_chan_mcs_cmd, align 4
  %91 = load ptr, ptr %8, align 8
  %92 = load i32, ptr %11, align 4
  %93 = call ptr @proto_tree_add_item(ptr noundef %89, i32 noundef %90, ptr noundef %91, i32 noundef %92, i32 noundef 1, i32 noundef 0)
  %94 = load ptr, ptr %16, align 8
  %95 = load i32, ptr @hf_rr_pkt_imm_ass_2_prm_d_chan_mcs_cmd_pnb512, align 4
  %96 = load ptr, ptr %8, align 8
  %97 = load i32, ptr %11, align 4
  %98 = call ptr @proto_tree_add_item(ptr noundef %94, i32 noundef %95, ptr noundef %96, i32 noundef %97, i32 noundef 1, i32 noundef 0)
  %99 = load ptr, ptr %16, align 8
  %100 = load i32, ptr @hf_rr_pkt_imm_ass_2_prm_d_spare1, align 4
  %101 = load ptr, ptr %8, align 8
  %102 = load i32, ptr %11, align 4
  %103 = add i32 %102, 1
  %104 = call ptr @proto_tree_add_item(ptr noundef %99, i32 noundef %100, ptr noundef %101, i32 noundef %103, i32 noundef 1, i32 noundef 0)
  %105 = load ptr, ptr %16, align 8
  %106 = load i32, ptr @hf_rr_pkt_imm_ass_2_prm_d_rlc_dblk_gnt, align 4
  %107 = load ptr, ptr %8, align 8
  %108 = load i32, ptr %11, align 4
  %109 = add i32 %108, 2
  %110 = call ptr @proto_tree_add_item(ptr noundef %105, i32 noundef %106, ptr noundef %107, i32 noundef %109, i32 noundef 1, i32 noundef 0)
  %111 = load ptr, ptr %16, align 8
  %112 = load i32, ptr @hf_rr_pkt_imm_ass_2_prm_d_spare2, align 4
  %113 = load ptr, ptr %8, align 8
  %114 = load i32, ptr %11, align 4
  %115 = add i32 %114, 2
  %116 = call ptr @proto_tree_add_item(ptr noundef %111, i32 noundef %112, ptr noundef %113, i32 noundef %115, i32 noundef 1, i32 noundef 0)
  %117 = load ptr, ptr %16, align 8
  %118 = load i32, ptr @hf_rr_pkt_imm_ass_2_prm_d_tfi, align 4
  %119 = load ptr, ptr %8, align 8
  %120 = load i32, ptr %11, align 4
  %121 = add i32 %120, 3
  %122 = call ptr @proto_tree_add_item(ptr noundef %117, i32 noundef %118, ptr noundef %119, i32 noundef %121, i32 noundef 1, i32 noundef 0)
  %123 = load ptr, ptr %16, align 8
  %124 = load i32, ptr @hf_rr_pkt_imm_ass_2_prm_d_usf_granularity, align 4
  %125 = load ptr, ptr %8, align 8
  %126 = load i32, ptr %11, align 4
  %127 = add i32 %126, 3
  %128 = call ptr @proto_tree_add_item(ptr noundef %123, i32 noundef %124, ptr noundef %125, i32 noundef %127, i32 noundef 1, i32 noundef 0)
  %129 = load ptr, ptr %16, align 8
  %130 = load i32, ptr @hf_rr_pkt_imm_ass_2_prm_d_mac_slot_alloc, align 4
  %131 = load ptr, ptr %8, align 8
  %132 = load i32, ptr %11, align 4
  %133 = add i32 %132, 4
  %134 = call ptr @proto_tree_add_item(ptr noundef %129, i32 noundef %130, ptr noundef %131, i32 noundef %133, i32 noundef 1, i32 noundef 0)
  call void @llvm.lifetime.end.p0(i64 8, ptr %16) #5
  call void @llvm.lifetime.end.p0(i64 8, ptr %15) #5
  ret i16 5
}