; Function Attrs: null_pointer_is_valid sspstrong uwtable
define internal noundef zeroext i16 @gmr1_ie_rr_pkt_imm_ass_2_prm(ptr noundef %0, ptr noundef %1, ptr readnone captures(none) %2, i32 noundef %3, i32 %4, ptr readnone captures(none) %5, i32 %6) #1 {
  %8 = load i32, ptr getelementptr inbounds nuw (i8, ptr @ett_gmr1_ie_rr, i64 104), align 8
  %9 = tail call ptr @proto_tree_add_subtree(ptr noundef %1, ptr noundef %0, i32 noundef %3, i32 noundef 5, i32 noundef %8, ptr noundef null, ptr noundef nonnull @.str.226)
  %10 = load i32, ptr @hf_rr_pkt_imm_ass_2_prm_ac_spare1, align 4
  %11 = tail call ptr @proto_tree_add_item(ptr noundef %9, i32 noundef %10, ptr noundef %0, i32 noundef %3, i32 noundef 1, i32 noundef 0)
  %12 = load i32, ptr @hf_rr_pkt_imm_ass_2_prm_ac_final_alloc, align 4
  %13 = tail call ptr @proto_tree_add_item(ptr noundef %9, i32 noundef %12, ptr noundef %0, i32 noundef %3, i32 noundef 1, i32 noundef 0)
  %14 = load i32, ptr @hf_rr_pkt_imm_ass_2_prm_ac_usf_granularity, align 4
  %15 = tail call ptr @proto_tree_add_item(ptr noundef %9, i32 noundef %14, ptr noundef %0, i32 noundef %3, i32 noundef 1, i32 noundef 0)
  %16 = load i32, ptr @hf_rr_pkt_imm_ass_2_prm_ac_dl_ctl_mac_slot, align 4
  %17 = tail call ptr @proto_tree_add_item(ptr noundef %9, i32 noundef %16, ptr noundef %0, i32 noundef %3, i32 noundef 1, i32 noundef 0)
  %18 = load i32, ptr @hf_rr_pkt_imm_ass_2_prm_ac_mac_mode, align 4
  %19 = tail call ptr @proto_tree_add_item(ptr noundef %9, i32 noundef %18, ptr noundef %0, i32 noundef %3, i32 noundef 1, i32 noundef 0)
  %20 = load i32, ptr @hf_rr_pkt_imm_ass_2_prm_ac_start_fn, align 4
  %21 = add i32 %3, 1
  %22 = tail call ptr @proto_tree_add_item(ptr noundef %9, i32 noundef %20, ptr noundef %0, i32 noundef %21, i32 noundef 1, i32 noundef 0)
  %23 = load i32, ptr @hf_rr_pkt_imm_ass_2_prm_ac_rlc_dblk_gnt, align 4
  %24 = shl i32 %21, 3
  %25 = tail call ptr @proto_tree_add_split_bits_item_ret_val(ptr noundef %1, i32 noundef %23, ptr noundef %0, i32 noundef %24, ptr noundef nonnull @rr_pkt_imm_ass_2_prm_ac_rlc_dblk_gnt_crumbs, ptr noundef null)
  %26 = load i32, ptr @hf_rr_pkt_imm_ass_2_prm_ac_mcs, align 4
  %27 = add i32 %3, 2
  %28 = tail call ptr @proto_tree_add_item(ptr noundef %9, i32 noundef %26, ptr noundef %0, i32 noundef %27, i32 noundef 1, i32 noundef 0)
  %29 = load i32, ptr @hf_rr_pkt_imm_ass_2_prm_ac_tfi, align 4
  %30 = add i32 %3, 3
  %31 = tail call ptr @proto_tree_add_item(ptr noundef %9, i32 noundef %29, ptr noundef %0, i32 noundef %30, i32 noundef 1, i32 noundef 0)
  %32 = load i32, ptr @hf_rr_pkt_imm_ass_2_prm_ac_spare2, align 4
  %33 = tail call ptr @proto_tree_add_item(ptr noundef %9, i32 noundef %32, ptr noundef %0, i32 noundef %30, i32 noundef 1, i32 noundef 0)
  %34 = load i32, ptr @hf_rr_pkt_imm_ass_2_prm_ac_mac_slot_alloc, align 4
  %35 = add i32 %3, 4
  %36 = tail call ptr @proto_tree_add_item(ptr noundef %9, i32 noundef %34, ptr noundef %0, i32 noundef %35, i32 noundef 1, i32 noundef 0)
  %37 = load i32, ptr getelementptr inbounds nuw (i8, ptr @ett_gmr1_ie_rr, i64 104), align 8
  %38 = tail call ptr @proto_tree_add_subtree(ptr noundef %1, ptr noundef %0, i32 noundef %3, i32 noundef 5, i32 noundef %37, ptr noundef null, ptr noundef nonnull @.str.227)
  %39 = load i32, ptr @hf_rr_pkt_imm_ass_2_prm_d_chan_mcs_cmd, align 4
  %40 = tail call ptr @proto_tree_add_item(ptr noundef %38, i32 noundef %39, ptr noundef %0, i32 noundef %3, i32 noundef 1, i32 noundef 0)
  %41 = load i32, ptr @hf_rr_pkt_imm_ass_2_prm_d_chan_mcs_cmd_pnb512, align 4
  %42 = tail call ptr @proto_tree_add_item(ptr noundef %38, i32 noundef %41, ptr noundef %0, i32 noundef %3, i32 noundef 1, i32 noundef 0)
  %43 = load i32, ptr @hf_rr_pkt_imm_ass_2_prm_d_spare1, align 4
  %44 = tail call ptr @proto_tree_add_item(ptr noundef %38, i32 noundef %43, ptr noundef %0, i32 noundef %21, i32 noundef 1, i32 noundef 0)
  %45 = load i32, ptr @hf_rr_pkt_imm_ass_2_prm_d_rlc_dblk_gnt, align 4
  %46 = tail call ptr @proto_tree_add_item(ptr noundef %38, i32 noundef %45, ptr noundef %0, i32 noundef %27, i32 noundef 1, i32 noundef 0)
  %47 = load i32, ptr @hf_rr_pkt_imm_ass_2_prm_d_spare2, align 4
  %48 = tail call ptr @proto_tree_add_item(ptr noundef %38, i32 noundef %47, ptr noundef %0, i32 noundef %27, i32 noundef 1, i32 noundef 0)
  %49 = load i32, ptr @hf_rr_pkt_imm_ass_2_prm_d_tfi, align 4
  %50 = tail call ptr @proto_tree_add_item(ptr noundef %38, i32 noundef %49, ptr noundef %0, i32 noundef %30, i32 noundef 1, i32 noundef 0)
  %51 = load i32, ptr @hf_rr_pkt_imm_ass_2_prm_d_usf_granularity, align 4
  %52 = tail call ptr @proto_tree_add_item(ptr noundef %38, i32 noundef %51, ptr noundef %0, i32 noundef %30, i32 noundef 1, i32 noundef 0)
  %53 = load i32, ptr @hf_rr_pkt_imm_ass_2_prm_d_mac_slot_alloc, align 4
  %54 = tail call ptr @proto_tree_add_item(ptr noundef %38, i32 noundef %53, ptr noundef %0, i32 noundef %35, i32 noundef 1, i32 noundef 0)
  ret i16 5
}